; Function Attrs: mustprogress uwtable
define void @_ZNK17FilesetEntryModel10headerDataEiN2Qt11OrientationEi(ptr dead_on_unwind noalias writable sret(%class.QVariant) align 8 %0, ptr nocapture noundef nonnull readnone align 8 dereferenceable(40) %1, i32 noundef %2, i32 noundef %3, i32 noundef %4) unnamed_addr #0 align 2 personality ptr @__gxx_personality_v0 {
  %6 = alloca %class.QString, align 8
  %7 = alloca %class.QString, align 8
  %8 = alloca %class.QString, align 8
  %9 = alloca %class.QString, align 8
  %.not = icmp eq i32 %4, 0
  br i1 %.not, label %12, label %10

10:                                               ; preds = %5
  tail call void @llvm.memset.p0.i64(ptr noundef nonnull align 8 dereferenceable(24) %0, i8 0, i64 24, i1 false)
  %11 = getelementptr inbounds i8, ptr %0, i64 24
  store i64 2, ptr %11, align 8
  br label %_ZN7QStringD2Ev.exit

12:                                               ; preds = %5
  switch i32 %2, label %53 [
    i32 0, label %13
    i32 1, label %23
    i32 2, label %33
    i32 3, label %43
  ]

13:                                               ; preds = %12
  call void @_ZNK11QMetaObject2trEPKcS1_i(ptr dead_on_unwind nonnull writable sret(%class.QString) align 8 %6, ptr noundef nonnull align 8 dereferenceable(56) @_ZN17FilesetEntryModel16staticMetaObjectE, ptr noundef nonnull @.str.2, ptr noundef null, i32 noundef -1)
  invoke void @_ZN8QVariantC1ERK7QString(ptr noundef nonnull align 8 dereferenceable(32) %0, ptr noundef nonnull align 8 dereferenceable(24) %6)
          to label %14 unwind label %19

14:                                               ; preds = %13
  %15 = load ptr, ptr %6, align 8
  %.not.i.i.i = icmp eq ptr %15, null
  br i1 %.not.i.i.i, label %_ZN7QStringD2Ev.exit, label %_ZN17QArrayDataPointerIDsE5derefEv.exit.i.i

_ZN17QArrayDataPointerIDsE5derefEv.exit.i.i:      ; preds = %14
  %16 = atomicrmw sub ptr %15, i32 1 seq_cst, align 4
  %.not.i.i = icmp eq i32 %16, 1
  br i1 %.not.i.i, label %17, label %_ZN7QStringD2Ev.exit

17:                                               ; preds = %_ZN17QArrayDataPointerIDsE5derefEv.exit.i.i
  %18 = load ptr, ptr %6, align 8
  call void @_ZN10QArrayData10deallocateEPS_xx(ptr noundef %18, i64 noundef 2, i64 noundef 8) #12
  br label %_ZN7QStringD2Ev.exit

19:                                               ; preds = %13
  %20 = landingpad { ptr, i32 }
          cleanup
  %21 = load ptr, ptr %6, align 8
  %.not.i.i.i5 = icmp eq ptr %21, null
  br i1 %.not.i.i.i5, label %_ZN7QStringD2Ev.exit8, label %_ZN17QArrayDataPointerIDsE5derefEv.exit.i.i6

_ZN17QArrayDataPointerIDsE5derefEv.exit.i.i6:     ; preds = %19
  %22 = atomicrmw sub ptr %21, i32 1 seq_cst, align 4
  %.not.i.i7 = icmp eq i32 %22, 1
  br i1 %.not.i.i7, label %_ZN7QStringD2Ev.exit8.sink.split, label %_ZN7QStringD2Ev.exit8

23:                                               ; preds = %12
  call void @_ZNK11QMetaObject2trEPKcS1_i(ptr dead_on_unwind nonnull writable sret(%class.QString) align 8 %7, ptr noundef nonnull align 8 dereferenceable(56) @_ZN17FilesetEntryModel16staticMetaObjectE, ptr noundef nonnull @.str.3, ptr noundef null, i32 noundef -1)
  invoke void @_ZN8QVariantC1ERK7QString(ptr noundef nonnull align 8 dereferenceable(32) %0, ptr noundef nonnull align 8 dereferenceable(24) %7)
          to label %24 unwind label %29

24:                                               ; preds = %23
  %25 = load ptr, ptr %7, align 8
  %.not.i.i.i9 = icmp eq ptr %25, null
  br i1 %.not.i.i.i9, label %_ZN7QStringD2Ev.exit, label %_ZN17QArrayDataPointerIDsE5derefEv.exit.i.i10

_ZN17QArrayDataPointerIDsE5derefEv.exit.i.i10:    ; preds = %24
  %26 = atomicrmw sub ptr %25, i32 1 seq_cst, align 4
  %.not.i.i11 = icmp eq i32 %26, 1
  br i1 %.not.i.i11, label %27, label %_ZN7QStringD2Ev.exit

27:                                               ; preds = %_ZN17QArrayDataPointerIDsE5derefEv.exit.i.i10
  %28 = load ptr, ptr %7, align 8
  call void @_ZN10QArrayData10deallocateEPS_xx(ptr noundef %28, i64 noundef 2, i64 noundef 8) #12
  br label %_ZN7QStringD2Ev.exit

29:                                               ; preds = %23
  %30 = landingpad { ptr, i32 }
          cleanup
  %31 = load ptr, ptr %7, align 8
  %.not.i.i.i13 = icmp eq ptr %31, null
  br i1 %.not.i.i.i13, label %_ZN7QStringD2Ev.exit8, label %_ZN17QArrayDataPointerIDsE5derefEv.exit.i.i14

_ZN17QArrayDataPointerIDsE5derefEv.exit.i.i14:    ; preds = %29
  %32 = atomicrmw sub ptr %31, i32 1 seq_cst, align 4
  %.not.i.i15 = icmp eq i32 %32, 1
  br i1 %.not.i.i15, label %_ZN7QStringD2Ev.exit8.sink.split, label %_ZN7QStringD2Ev.exit8

33:                                               ; preds = %12
  call void @_ZNK11QMetaObject2trEPKcS1_i(ptr dead_on_unwind nonnull writable sret(%class.QString) align 8 %8, ptr noundef nonnull align 8 dereferenceable(56) @_ZN17FilesetEntryModel16staticMetaObjectE, ptr noundef nonnull @.str.4, ptr noundef null, i32 noundef -1)
  invoke void @_ZN8QVariantC1ERK7QString(ptr noundef nonnull align 8 dereferenceable(32) %0, ptr noundef nonnull align 8 dereferenceable(24) %8)
          to label %34 unwind label %39

34:                                               ; preds = %33
  %35 = load ptr, ptr %8, align 8
  %.not.i.i.i17 = icmp eq ptr %35, null
  br i1 %.not.i.i.i17, label %_ZN7QStringD2Ev.exit, label %_ZN17QArrayDataPointerIDsE5derefEv.exit.i.i18

_ZN17QArrayDataPointerIDsE5derefEv.exit.i.i18:    ; preds = %34
  %36 = atomicrmw sub ptr %35, i32 1 seq_cst, align 4
  %.not.i.i19 = icmp eq i32 %36, 1
  br i1 %.not.i.i19, label %37, label %_ZN7QStringD2Ev.exit

37:                                               ; preds = %_ZN17QArrayDataPointerIDsE5derefEv.exit.i.i18
  %38 = load ptr, ptr %8, align 8
  call void @_ZN10QArrayData10deallocateEPS_xx(ptr noundef %38, i64 noundef 2, i64 noundef 8) #12
  br label %_ZN7QStringD2Ev.exit

39:                                               ; preds = %33
  %40 = landingpad { ptr, i32 }
          cleanup
  %41 = load ptr, ptr %8, align 8
  %.not.i.i.i21 = icmp eq ptr %41, null
  br i1 %.not.i.i.i21, label %_ZN7QStringD2Ev.exit8, label %_ZN17QArrayDataPointerIDsE5derefEv.exit.i.i22

_ZN17QArrayDataPointerIDsE5derefEv.exit.i.i22:    ; preds = %39
  %42 = atomicrmw sub ptr %41, i32 1 seq_cst, align 4
  %.not.i.i23 = icmp eq i32 %42, 1
  br i1 %.not.i.i23, label %_ZN7QStringD2Ev.exit8.sink.split, label %_ZN7QStringD2Ev.exit8

43:                                               ; preds = %12
  call void @_ZNK11QMetaObject2trEPKcS1_i(ptr dead_on_unwind nonnull writable sret(%class.QString) align 8 %9, ptr noundef nonnull align 8 dereferenceable(56) @_ZN17FilesetEntryModel16staticMetaObjectE, ptr noundef nonnull @.str.5, ptr noundef null, i32 noundef -1)
  invoke void @_ZN8QVariantC1ERK7QString(ptr noundef nonnull align 8 dereferenceable(32) %0, ptr noundef nonnull align 8 dereferenceable(24) %9)
          to label %44 unwind label %49

44:                                               ; preds = %43
  %45 = load ptr, ptr %9, align 8
  %.not.i.i.i25 = icmp eq ptr %45, null
  br i1 %.not.i.i.i25, label %_ZN7QStringD2Ev.exit, label %_ZN17QArrayDataPointerIDsE5derefEv.exit.i.i26

_ZN17QArrayDataPointerIDsE5derefEv.exit.i.i26:    ; preds = %44
  %46 = atomicrmw sub ptr %45, i32 1 seq_cst, align 4
  %.not.i.i27 = icmp eq i32 %46, 1
  br i1 %.not.i.i27, label %47, label %_ZN7QStringD2Ev.exit

47:                                               ; preds = %_ZN17QArrayDataPointerIDsE5derefEv.exit.i.i26
  %48 = load ptr, ptr %9, align 8
  call void @_ZN10QArrayData10deallocateEPS_xx(ptr noundef %48, i64 noundef 2, i64 noundef 8) #12
  br label %_ZN7QStringD2Ev.exit

49:                                               ; preds = %43
  %50 = landingpad { ptr, i32 }
          cleanup
  %51 = load ptr, ptr %9, align 8
  %.not.i.i.i29 = icmp eq ptr %51, null
  br i1 %.not.i.i.i29, label %_ZN7QStringD2Ev.exit8, label %_ZN17QArrayDataPointerIDsE5derefEv.exit.i.i30

_ZN17QArrayDataPointerIDsE5derefEv.exit.i.i30:    ; preds = %49
  %52 = atomicrmw sub ptr %51, i32 1 seq_cst, align 4
  %.not.i.i31 = icmp eq i32 %52, 1
  br i1 %.not.i.i31, label %_ZN7QStringD2Ev.exit8.sink.split, label %_ZN7QStringD2Ev.exit8

53:                                               ; preds = %12
  tail call void @llvm.memset.p0.i64(ptr noundef nonnull align 8 dereferenceable(24) %0, i8 0, i64 24, i1 false)
  %54 = getelementptr inbounds i8, ptr %0, i64 24
  store i64 2, ptr %54, align 8
  br label %_ZN7QStringD2Ev.exit

_ZN7QStringD2Ev.exit:                             ; preds = %47, %_ZN17QArrayDataPointerIDsE5derefEv.exit.i.i26, %44, %37, %_ZN17QArrayDataPointerIDsE5derefEv.exit.i.i18, %34, %27, %_ZN17QArrayDataPointerIDsE5derefEv.exit.i.i10, %24, %17, %_ZN17QArrayDataPointerIDsE5derefEv.exit.i.i, %14, %53, %10
  ret void

_ZN7QStringD2Ev.exit8.sink.split:                 ; preds = %_ZN17QArrayDataPointerIDsE5derefEv.exit.i.i30, %_ZN17QArrayDataPointerIDsE5derefEv.exit.i.i22, %_ZN17QArrayDataPointerIDsE5derefEv.exit.i.i14, %_ZN17QArrayDataPointerIDsE5derefEv.exit.i.i6
  %.sink.in = phi ptr [ %6, %_ZN17QArrayDataPointerIDsE5derefEv.exit.i.i6 ], [ %7, %_ZN17QArrayDataPointerIDsE5derefEv.exit.i.i14 ], [ %8, %_ZN17QArrayDataPointerIDsE5derefEv.exit.i.i22 ], [ %9, %_ZN17QArrayDataPointerIDsE5derefEv.exit.i.i30 ]
  %.pn.ph = phi { ptr, i32 } [ %20, %_ZN17QArrayDataPointerIDsE5derefEv.exit.i.i6 ], [ %30, %_ZN17QArrayDataPointerIDsE5derefEv.exit.i.i14 ], [ %40, %_ZN17QArrayDataPointerIDsE5derefEv.exit.i.i22 ], [ %50, %_ZN17QArrayDataPointerIDsE5derefEv.exit.i.i30 ]
  %.sink = load ptr, ptr %.sink.in, align 8
  call void @_ZN10QArrayData10deallocateEPS_xx(ptr noundef %.sink, i64 noundef 2, i64 noundef 8) #12
  br label %_ZN7QStringD2Ev.exit8

_ZN7QStringD2Ev.exit8:                            ; preds = %_ZN7QStringD2Ev.exit8.sink.split, %_ZN17QArrayDataPointerIDsE5derefEv.exit.i.i30, %49, %_ZN17QArrayDataPointerIDsE5derefEv.exit.i.i22, %39, %_ZN17QArrayDataPointerIDsE5derefEv.exit.i.i14, %29, %_ZN17QArrayDataPointerIDsE5derefEv.exit.i.i6, %19
  %.pn = phi { ptr, i32 } [ %20, %19 ], [ %20, %_ZN17QArrayDataPointerIDsE5derefEv.exit.i.i6 ], [ %30, %29 ], [ %30, %_ZN17QArrayDataPointerIDsE5derefEv.exit.i.i14 ], [ %40, %39 ], [ %40, %_ZN17QArrayDataPointerIDsE5derefEv.exit.i.i22 ], [ %50, %49 ], [ %50, %_ZN17QArrayDataPointerIDsE5derefEv.exit.i.i30 ], [ %.pn.ph, %_ZN7QStringD2Ev.exit8.sink.split ]
  resume { ptr, i32 } %.pn
}